; ModuleID = 'source-C-CXX/51/3884.c'
source_filename = "source-C-CXX/51/3884.c"
target datalayout = "e-m:e-p270:32:32-p271:32:32-p272:64:64-i64:64-f80:128-n8:16:32:64-S128"
target triple = "x86_64-pc-linux-gnu"

@.str = private unnamed_addr constant [5 x i8] c"%d%d\00", align 1
@.str.1 = private unnamed_addr constant [3 x i8] c"%d\00", align 1
@.str.2 = private unnamed_addr constant [4 x i8] c" %d\00", align 1

; Function Attrs: nofree norecurse nosync nounwind sspstrong uwtable
define dso_local void @xunhuan(i32* nocapture %0, i32 %1, i32 %2) local_unnamed_addr #0 {
  %4 = add i32 %1, -1
  %5 = sext i32 %4 to i64
  %6 = getelementptr inbounds i32, i32* %0, i64 %5
  %7 = icmp sgt i32 %2, 0
  br i1 %7, label %8, label %116

8:                                                ; preds = %3
  %9 = icmp sgt i32 %1, 1
  br i1 %9, label %16, label %10

10:                                               ; preds = %8
  %11 = add i32 %2, -1
  %12 = and i32 %2, 7
  %13 = icmp ult i32 %11, 7
  br i1 %13, label %109, label %14

14:                                               ; preds = %10
  %15 = and i32 %2, -8
  br label %97

16:                                               ; preds = %8
  %17 = load i32, i32* %0, align 4, !tbaa !5
  %18 = zext i32 %4 to i64
  %19 = and i64 %18, 4294967288
  %20 = add nsw i64 %19, -8
  %21 = lshr exact i64 %20, 3
  %22 = add nuw nsw i64 %21, 1
  %23 = icmp ult i32 %4, 8
  %24 = and i64 %18, 4294967288
  %25 = and i64 %22, 1
  %26 = icmp eq i64 %20, 0
  %27 = and i64 %22, 4611686018427387902
  %28 = icmp eq i64 %25, 0
  %29 = icmp eq i64 %24, %18
  br label %30

30:                                               ; preds = %16, %94
  %31 = phi i32 [ %33, %94 ], [ %17, %16 ]
  %32 = phi i32 [ %95, %94 ], [ 0, %16 ]
  %33 = load i32, i32* %6, align 4, !tbaa !5
  store i32 %33, i32* %0, align 4, !tbaa !5
  br i1 %23, label %84, label %34

34:                                               ; preds = %30
  %35 = insertelement <4 x i32> poison, i32 %31, i32 3
  br i1 %26, label %65, label %36

36:                                               ; preds = %34, %36
  %37 = phi i64 [ %62, %36 ], [ 0, %34 ]
  %38 = phi <4 x i32> [ %57, %36 ], [ %35, %34 ]
  %39 = phi i64 [ %63, %36 ], [ %27, %34 ]
  %40 = or i64 %37, 1
  %41 = getelementptr inbounds i32, i32* %0, i64 %40
  %42 = bitcast i32* %41 to <4 x i32>*
  %43 = load <4 x i32>, <4 x i32>* %42, align 4, !tbaa !5
  %44 = getelementptr inbounds i32, i32* %41, i64 4
  %45 = bitcast i32* %44 to <4 x i32>*
  %46 = load <4 x i32>, <4 x i32>* %45, align 4, !tbaa !5
  %47 = shufflevector <4 x i32> %38, <4 x i32> %43, <4 x i32> <i32 3, i32 4, i32 5, i32 6>
  %48 = shufflevector <4 x i32> %43, <4 x i32> %46, <4 x i32> <i32 3, i32 4, i32 5, i32 6>
  %49 = bitcast i32* %41 to <4 x i32>*
  store <4 x i32> %47, <4 x i32>* %49, align 4, !tbaa !5
  %50 = bitcast i32* %44 to <4 x i32>*
  store <4 x i32> %48, <4 x i32>* %50, align 4, !tbaa !5
  %51 = or i64 %37, 9
  %52 = getelementptr inbounds i32, i32* %0, i64 %51
  %53 = bitcast i32* %52 to <4 x i32>*
  %54 = load <4 x i32>, <4 x i32>* %53, align 4, !tbaa !5
  %55 = getelementptr inbounds i32, i32* %52, i64 4
  %56 = bitcast i32* %55 to <4 x i32>*
  %57 = load <4 x i32>, <4 x i32>* %56, align 4, !tbaa !5
  %58 = shufflevector <4 x i32> %46, <4 x i32> %54, <4 x i32> <i32 3, i32 4, i32 5, i32 6>
  %59 = shufflevector <4 x i32> %54, <4 x i32> %57, <4 x i32> <i32 3, i32 4, i32 5, i32 6>
  %60 = bitcast i32* %52 to <4 x i32>*
  store <4 x i32> %58, <4 x i32>* %60, align 4, !tbaa !5
  %61 = bitcast i32* %55 to <4 x i32>*
  store <4 x i32> %59, <4 x i32>* %61, align 4, !tbaa !5
  %62 = add nuw i64 %37, 16
  %63 = add i64 %39, -2
  %64 = icmp eq i64 %63, 0
  br i1 %64, label %65, label %36, !llvm.loop !9

65:                                               ; preds = %36, %34
  %66 = phi <4 x i32> [ undef, %34 ], [ %57, %36 ]
  %67 = phi i64 [ 0, %34 ], [ %62, %36 ]
  %68 = phi <4 x i32> [ %35, %34 ], [ %57, %36 ]
  br i1 %28, label %81, label %69

69:                                               ; preds = %65
  %70 = or i64 %67, 1
  %71 = getelementptr inbounds i32, i32* %0, i64 %70
  %72 = bitcast i32* %71 to <4 x i32>*
  %73 = load <4 x i32>, <4 x i32>* %72, align 4, !tbaa !5
  %74 = getelementptr inbounds i32, i32* %71, i64 4
  %75 = bitcast i32* %74 to <4 x i32>*
  %76 = load <4 x i32>, <4 x i32>* %75, align 4, !tbaa !5
  %77 = shufflevector <4 x i32> %68, <4 x i32> %73, <4 x i32> <i32 3, i32 4, i32 5, i32 6>
  %78 = shufflevector <4 x i32> %73, <4 x i32> %76, <4 x i32> <i32 3, i32 4, i32 5, i32 6>
  %79 = bitcast i32* %71 to <4 x i32>*
  store <4 x i32> %77, <4 x i32>* %79, align 4, !tbaa !5
  %80 = bitcast i32* %74 to <4 x i32>*
  store <4 x i32> %78, <4 x i32>* %80, align 4, !tbaa !5
  br label %81

81:                                               ; preds = %65, %69
  %82 = phi <4 x i32> [ %66, %65 ], [ %76, %69 ]
  %83 = extractelement <4 x i32> %82, i32 3
  br i1 %29, label %94, label %84

84:                                               ; preds = %30, %81
  %85 = phi i64 [ %24, %81 ], [ 0, %30 ]
  %86 = phi i32 [ %83, %81 ], [ %31, %30 ]
  br label %87

87:                                               ; preds = %84, %87
  %88 = phi i64 [ %90, %87 ], [ %85, %84 ]
  %89 = phi i32 [ %92, %87 ], [ %86, %84 ]
  %90 = add nuw nsw i64 %88, 1
  %91 = getelementptr inbounds i32, i32* %0, i64 %90
  %92 = load i32, i32* %91, align 4, !tbaa !5
  store i32 %89, i32* %91, align 4, !tbaa !5
  %93 = icmp eq i64 %90, %18
  br i1 %93, label %94, label %87, !llvm.loop !12

94:                                               ; preds = %87, %81
  %95 = add nuw nsw i32 %32, 1
  %96 = icmp eq i32 %95, %2
  br i1 %96, label %116, label %30, !llvm.loop !14

97:                                               ; preds = %97, %14
  %98 = phi i32 [ %15, %14 ], [ %107, %97 ]
  %99 = load i32, i32* %6, align 4, !tbaa !5
  store i32 %99, i32* %0, align 4, !tbaa !5
  %100 = load i32, i32* %6, align 4, !tbaa !5
  store i32 %100, i32* %0, align 4, !tbaa !5
  %101 = load i32, i32* %6, align 4, !tbaa !5
  store i32 %101, i32* %0, align 4, !tbaa !5
  %102 = load i32, i32* %6, align 4, !tbaa !5
  store i32 %102, i32* %0, align 4, !tbaa !5
  %103 = load i32, i32* %6, align 4, !tbaa !5
  store i32 %103, i32* %0, align 4, !tbaa !5
  %104 = load i32, i32* %6, align 4, !tbaa !5
  store i32 %104, i32* %0, align 4, !tbaa !5
  %105 = load i32, i32* %6, align 4, !tbaa !5
  store i32 %105, i32* %0, align 4, !tbaa !5
  %106 = load i32, i32* %6, align 4, !tbaa !5
  store i32 %106, i32* %0, align 4, !tbaa !5
  %107 = add i32 %98, -8
  %108 = icmp eq i32 %107, 0
  br i1 %108, label %109, label %97, !llvm.loop !14

109:                                              ; preds = %97, %10
  %110 = icmp eq i32 %12, 0
  br i1 %110, label %116, label %111

111:                                              ; preds = %109, %111
  %112 = phi i32 [ %114, %111 ], [ %12, %109 ]
  %113 = load i32, i32* %6, align 4, !tbaa !5
  store i32 %113, i32* %0, align 4, !tbaa !5
  %114 = add i32 %112, -1
  %115 = icmp eq i32 %114, 0
  br i1 %115, label %116, label %111, !llvm.loop !15

116:                                              ; preds = %109, %111, %94, %3
  ret void
}

; Function Attrs: argmemonly mustprogress nofree nosync nounwind willreturn
declare void @llvm.lifetime.start.p0i8(i64 immarg, i8* nocapture) #1

; Function Attrs: argmemonly mustprogress nofree nosync nounwind willreturn
declare void @llvm.lifetime.end.p0i8(i64 immarg, i8* nocapture) #1

; Function Attrs: nofree nounwind sspstrong uwtable
define dso_local i32 @main() local_unnamed_addr #2 {
  %1 = alloca [100 x i32], align 16
  %2 = alloca i32, align 4
  %3 = alloca i32, align 4
  %4 = bitcast [100 x i32]* %1 to i8*
  call void @llvm.lifetime.start.p0i8(i64 400, i8* nonnull %4) #4
  %5 = bitcast i32* %2 to i8*
  call void @llvm.lifetime.start.p0i8(i64 4, i8* nonnull %5) #4
  %6 = bitcast i32* %3 to i8*
  call void @llvm.lifetime.start.p0i8(i64 4, i8* nonnull %6) #4
  %7 = call i32 (i8*, ...) @__isoc99_scanf(i8* getelementptr inbounds ([5 x i8], [5 x i8]* @.str, i64 0, i64 0), i32* nonnull %2, i32* nonnull %3)
  %8 = load i32, i32* %2, align 4, !tbaa !5
  %9 = icmp sgt i32 %8, 0
  br i1 %9, label %10, label %18

10:                                               ; preds = %0, %10
  %11 = phi i64 [ %14, %10 ], [ 0, %0 ]
  %12 = getelementptr inbounds [100 x i32], [100 x i32]* %1, i64 0, i64 %11
  %13 = call i32 (i8*, ...) @__isoc99_scanf(i8* getelementptr inbounds ([3 x i8], [3 x i8]* @.str.1, i64 0, i64 0), i32* nonnull %12)
  %14 = add nuw nsw i64 %11, 1
  %15 = load i32, i32* %2, align 4, !tbaa !5
  %16 = sext i32 %15 to i64
  %17 = icmp slt i64 %14, %16
  br i1 %17, label %10, label %18, !llvm.loop !17

18:                                               ; preds = %10, %0
  %19 = phi i32 [ %8, %0 ], [ %15, %10 ]
  %20 = getelementptr inbounds [100 x i32], [100 x i32]* %1, i64 0, i64 0
  %21 = load i32, i32* %3, align 4, !tbaa !5
  %22 = add i32 %19, -1
  %23 = sext i32 %22 to i64
  %24 = getelementptr inbounds [100 x i32], [100 x i32]* %1, i64 0, i64 %23
  %25 = icmp sgt i32 %21, 0
  br i1 %25, label %28, label %26

26:                                               ; preds = %18
  %27 = load i32, i32* %20, align 16, !tbaa !5
  br label %137

28:                                               ; preds = %18
  %29 = icmp sgt i32 %19, 1
  br i1 %29, label %36, label %30

30:                                               ; preds = %28
  %31 = add i32 %21, -1
  %32 = and i32 %21, 7
  %33 = icmp ult i32 %31, 7
  br i1 %33, label %129, label %34

34:                                               ; preds = %30
  %35 = and i32 %21, -8
  br label %117

36:                                               ; preds = %28
  %37 = load i32, i32* %20, align 16, !tbaa !5
  %38 = zext i32 %22 to i64
  %39 = and i64 %38, 4294967288
  %40 = add nsw i64 %39, -8
  %41 = lshr exact i64 %40, 3
  %42 = add nuw nsw i64 %41, 1
  %43 = icmp ult i32 %22, 8
  %44 = and i64 %38, 4294967288
  %45 = and i64 %42, 1
  %46 = icmp eq i64 %40, 0
  %47 = and i64 %42, 4611686018427387902
  %48 = icmp eq i64 %45, 0
  %49 = icmp eq i64 %44, %38
  br label %50

50:                                               ; preds = %114, %36
  %51 = phi i32 [ %53, %114 ], [ %37, %36 ]
  %52 = phi i32 [ %115, %114 ], [ 0, %36 ]
  %53 = load i32, i32* %24, align 4, !tbaa !5
  store i32 %53, i32* %20, align 16, !tbaa !5
  br i1 %43, label %104, label %54

54:                                               ; preds = %50
  %55 = insertelement <4 x i32> poison, i32 %51, i32 3
  br i1 %46, label %85, label %56

56:                                               ; preds = %54, %56
  %57 = phi i64 [ %82, %56 ], [ 0, %54 ]
  %58 = phi <4 x i32> [ %77, %56 ], [ %55, %54 ]
  %59 = phi i64 [ %83, %56 ], [ %47, %54 ]
  %60 = or i64 %57, 1
  %61 = getelementptr inbounds [100 x i32], [100 x i32]* %1, i64 0, i64 %60
  %62 = bitcast i32* %61 to <4 x i32>*
  %63 = load <4 x i32>, <4 x i32>* %62, align 4, !tbaa !5
  %64 = getelementptr inbounds i32, i32* %61, i64 4
  %65 = bitcast i32* %64 to <4 x i32>*
  %66 = load <4 x i32>, <4 x i32>* %65, align 4, !tbaa !5
  %67 = shufflevector <4 x i32> %58, <4 x i32> %63, <4 x i32> <i32 3, i32 4, i32 5, i32 6>
  %68 = shufflevector <4 x i32> %63, <4 x i32> %66, <4 x i32> <i32 3, i32 4, i32 5, i32 6>
  %69 = bitcast i32* %61 to <4 x i32>*
  store <4 x i32> %67, <4 x i32>* %69, align 4, !tbaa !5
  %70 = bitcast i32* %64 to <4 x i32>*
  store <4 x i32> %68, <4 x i32>* %70, align 4, !tbaa !5
  %71 = or i64 %57, 9
  %72 = getelementptr inbounds [100 x i32], [100 x i32]* %1, i64 0, i64 %71
  %73 = bitcast i32* %72 to <4 x i32>*
  %74 = load <4 x i32>, <4 x i32>* %73, align 4, !tbaa !5
  %75 = getelementptr inbounds i32, i32* %72, i64 4
  %76 = bitcast i32* %75 to <4 x i32>*
  %77 = load <4 x i32>, <4 x i32>* %76, align 4, !tbaa !5
  %78 = shufflevector <4 x i32> %66, <4 x i32> %74, <4 x i32> <i32 3, i32 4, i32 5, i32 6>
  %79 = shufflevector <4 x i32> %74, <4 x i32> %77, <4 x i32> <i32 3, i32 4, i32 5, i32 6>
  %80 = bitcast i32* %72 to <4 x i32>*
  store <4 x i32> %78, <4 x i32>* %80, align 4, !tbaa !5
  %81 = bitcast i32* %75 to <4 x i32>*
  store <4 x i32> %79, <4 x i32>* %81, align 4, !tbaa !5
  %82 = add nuw i64 %57, 16
  %83 = add i64 %59, -2
  %84 = icmp eq i64 %83, 0
  br i1 %84, label %85, label %56, !llvm.loop !18

85:                                               ; preds = %56, %54
  %86 = phi <4 x i32> [ undef, %54 ], [ %77, %56 ]
  %87 = phi i64 [ 0, %54 ], [ %82, %56 ]
  %88 = phi <4 x i32> [ %55, %54 ], [ %77, %56 ]
  br i1 %48, label %101, label %89

89:                                               ; preds = %85
  %90 = or i64 %87, 1
  %91 = getelementptr inbounds [100 x i32], [100 x i32]* %1, i64 0, i64 %90
  %92 = bitcast i32* %91 to <4 x i32>*
  %93 = load <4 x i32>, <4 x i32>* %92, align 4, !tbaa !5
  %94 = getelementptr inbounds i32, i32* %91, i64 4
  %95 = bitcast i32* %94 to <4 x i32>*
  %96 = load <4 x i32>, <4 x i32>* %95, align 4, !tbaa !5
  %97 = shufflevector <4 x i32> %88, <4 x i32> %93, <4 x i32> <i32 3, i32 4, i32 5, i32 6>
  %98 = shufflevector <4 x i32> %93, <4 x i32> %96, <4 x i32> <i32 3, i32 4, i32 5, i32 6>
  %99 = bitcast i32* %91 to <4 x i32>*
  store <4 x i32> %97, <4 x i32>* %99, align 4, !tbaa !5
  %100 = bitcast i32* %94 to <4 x i32>*
  store <4 x i32> %98, <4 x i32>* %100, align 4, !tbaa !5
  br label %101

101:                                              ; preds = %85, %89
  %102 = phi <4 x i32> [ %86, %85 ], [ %96, %89 ]
  %103 = extractelement <4 x i32> %102, i32 3
  br i1 %49, label %114, label %104

104:                                              ; preds = %50, %101
  %105 = phi i64 [ %44, %101 ], [ 0, %50 ]
  %106 = phi i32 [ %103, %101 ], [ %51, %50 ]
  br label %107

107:                                              ; preds = %104, %107
  %108 = phi i64 [ %110, %107 ], [ %105, %104 ]
  %109 = phi i32 [ %112, %107 ], [ %106, %104 ]
  %110 = add nuw nsw i64 %108, 1
  %111 = getelementptr inbounds [100 x i32], [100 x i32]* %1, i64 0, i64 %110
  %112 = load i32, i32* %111, align 4, !tbaa !5
  store i32 %109, i32* %111, align 4, !tbaa !5
  %113 = icmp eq i64 %110, %38
  br i1 %113, label %114, label %107, !llvm.loop !19

114:                                              ; preds = %107, %101
  %115 = add nuw nsw i32 %52, 1
  %116 = icmp eq i32 %115, %21
  br i1 %116, label %137, label %50, !llvm.loop !14

117:                                              ; preds = %117, %34
  %118 = phi i32 [ %35, %34 ], [ %127, %117 ]
  %119 = load i32, i32* %24, align 4, !tbaa !5
  store i32 %119, i32* %20, align 16, !tbaa !5
  %120 = load i32, i32* %24, align 4, !tbaa !5
  store i32 %120, i32* %20, align 16, !tbaa !5
  %121 = load i32, i32* %24, align 4, !tbaa !5
  store i32 %121, i32* %20, align 16, !tbaa !5
  %122 = load i32, i32* %24, align 4, !tbaa !5
  store i32 %122, i32* %20, align 16, !tbaa !5
  %123 = load i32, i32* %24, align 4, !tbaa !5
  store i32 %123, i32* %20, align 16, !tbaa !5
  %124 = load i32, i32* %24, align 4, !tbaa !5
  store i32 %124, i32* %20, align 16, !tbaa !5
  %125 = load i32, i32* %24, align 4, !tbaa !5
  store i32 %125, i32* %20, align 16, !tbaa !5
  %126 = load i32, i32* %24, align 4, !tbaa !5
  store i32 %126, i32* %20, align 16, !tbaa !5
  %127 = add i32 %118, -8
  %128 = icmp eq i32 %127, 0
  br i1 %128, label %129, label %117, !llvm.loop !14

129:                                              ; preds = %117, %30
  %130 = phi i32 [ undef, %30 ], [ %126, %117 ]
  %131 = icmp eq i32 %32, 0
  br i1 %131, label %137, label %132

132:                                              ; preds = %129, %132
  %133 = phi i32 [ %135, %132 ], [ %32, %129 ]
  %134 = load i32, i32* %24, align 4, !tbaa !5
  store i32 %134, i32* %20, align 16, !tbaa !5
  %135 = add i32 %133, -1
  %136 = icmp eq i32 %135, 0
  br i1 %136, label %137, label %132, !llvm.loop !20

137:                                              ; preds = %129, %132, %114, %26
  %138 = phi i32 [ %27, %26 ], [ %53, %114 ], [ %130, %129 ], [ %134, %132 ]
  %139 = call i32 (i8*, ...) @printf(i8* nonnull dereferenceable(1) getelementptr inbounds ([3 x i8], [3 x i8]* @.str.1, i64 0, i64 0), i32 %138)
  %140 = load i32, i32* %2, align 4, !tbaa !5
  %141 = icmp sgt i32 %140, 1
  br i1 %141, label %142, label %151

142:                                              ; preds = %137, %142
  %143 = phi i64 [ %147, %142 ], [ 1, %137 ]
  %144 = getelementptr inbounds [100 x i32], [100 x i32]* %1, i64 0, i64 %143
  %145 = load i32, i32* %144, align 4, !tbaa !5
  %146 = call i32 (i8*, ...) @printf(i8* nonnull dereferenceable(1) getelementptr inbounds ([4 x i8], [4 x i8]* @.str.2, i64 0, i64 0), i32 %145)
  %147 = add nuw nsw i64 %143, 1
  %148 = load i32, i32* %2, align 4, !tbaa !5
  %149 = sext i32 %148 to i64
  %150 = icmp slt i64 %147, %149
  br i1 %150, label %142, label %151, !llvm.loop !21

151:                                              ; preds = %142, %137
  call void @llvm.lifetime.end.p0i8(i64 4, i8* nonnull %6) #4
  call void @llvm.lifetime.end.p0i8(i64 4, i8* nonnull %5) #4
  call void @llvm.lifetime.end.p0i8(i64 400, i8* nonnull %4) #4
  ret i32 0
}

; Function Attrs: nofree nounwind
declare noundef i32 @__isoc99_scanf(i8* nocapture noundef readonly, ...) local_unnamed_addr #3

; Function Attrs: nofree nounwind
declare noundef i32 @printf(i8* nocapture noundef readonly, ...) local_unnamed_addr #3


!llvm.module.flags = !{!0, !1, !2, !3}
!llvm.ident = !{!4}

!0 = !{i32 1, !"wchar_size", i32 4}
!1 = !{i32 7, !"PIC Level", i32 2}
!2 = !{i32 7, !"PIE Level", i32 2}
!3 = !{i32 7, !"uwtable", i32 1}
!4 = !{!"clang version 13.0.0"}
!5 = !{!6, !6, i64 0}
!6 = !{!"int", !7, i64 0}
!7 = !{!"omnipotent char", !8, i64 0}
!8 = !{!"Simple C/C++ TBAA"}
!9 = distinct !{!9, !10, !11}
!10 = !{!"llvm.loop.mustprogress"}
!11 = !{!"llvm.loop.isvectorized", i32 1}
!12 = distinct !{!12, !10, !13, !11}
!13 = !{!"llvm.loop.unroll.runtime.disable"}
!14 = distinct !{!14, !10}
!15 = distinct !{!15, !16}
!16 = !{!"llvm.loop.unroll.disable"}
!17 = distinct !{!17, !10}
!18 = distinct !{!18, !10, !11}
!19 = distinct !{!19, !10, !13, !11}
!20 = distinct !{!20, !16}
!21 = distinct !{!21, !10}
